     1                                  
     2                                  extern printf
     3                                  section .data
     4                                  
     5                                  NR_read  equ 0
     6                                  NR_write equ 1
     7                                  NR_open  equ 2
     8                                  NR_close equ 3
     9                                  
    10                                  O_RDONLY equ 000000q
    11                                  
    12                                  
    13                                  
    14 00000000 00C1814001C0804101-     HIGH db 0x00, 0xc1, 0x81, 0x40, 0x01, 0xc0, 0x80, 0x41, 0x01, 0xc0, 0x80, 0x41, 0x00, 0xc1, 0x81, 0x40, 0x01, 0xc0, 0x80, 0x41, 0x00, 0xc1, 0x81, 0x40, 0x00, 0xc1, 0x81, 0x40, 0x01, 0xc0, 0x80, 0x41, 0x01, 0xc0, 0x80, 0x41, 0x00, 0xc1, 0x81, 0x40, 0x00, 0xc1, 0x81, 0x40, 0x01, 0xc0, 0x80, 0x41, 0x00, 0xc1, 0x81, 0x40, 0x01, 0xc0, 0x80, 0x41, 0x01, 0xc0, 0x80, 0x41, 0x00, 0xc1, 0x81, 0x40, 0x01, 0xc0, 0x80, 0x41, 0x00, 0xc1, 0x81, 0x40, 0x00, 0xc1, 0x81, 0x40, 0x01, 0xc0, 0x80, 0x41, 0x00, 0xc1, 0x81, 0x40, 0x01, 0xc0, 0x80, 0x41, 0x01, 0xc0, 0x80, 0x41, 0x00, 0xc1, 0x81, 0x40, 0x00, 0xc1, 0x81, 0x40, 0x01, 0xc0, 0x80, 0x41, 0x01, 0xc0, 0x80, 0x41, 0x00, 0xc1, 0x81, 0x40, 0x01, 0xc0, 0x80, 0x41, 0x00, 0xc1, 0x81, 0x40, 0x00, 0xc1, 0x81, 0x40, 0x01, 0xc0, 0x80, 0x41, 0x01, 0xc0, 0x80, 0x41, 0x00, 0xc1, 0x81, 0x40, 0x00, 0xc1, 0x81, 0x40, 0x01, 0xc0, 0x80, 0x41, 0x00, 0xc1, 0x81, 0x40, 0x01, 0xc0, 0x80, 0x41, 0x01, 0xc0, 0x80, 0x41, 0x00, 0xc1, 0x81, 0x40, 0x00, 0xc1, 0x81, 0x40, 0x01, 0xc0, 0x80, 0x41, 0x01...
    14 00000009 C0804100C1814001C0-
    14 00000012 804100C1814000C181-
    14 0000001B 4001C0804101C08041-
    14 00000024 00C1814000C1814001-
    14 0000002D C0804100C1814001C0-
    14 00000036 804101C0804100C181-
    14 0000003F 4001C0804100C18140-
    14 00000048 00C1814001C0804100-
    14 00000051 C1814001C0804101C0-
    14 0000005A 804100C1814000C181-
    14 00000063 4001C0804101C08041-
    14 0000006C 00C1814001C0804100-
    14 00000075 C1814000C1814001C0-
    14 0000007E 804101C0804100C181-
    14 00000087 4000C1814001C08041-
    14 00000090 00C1814001C0804101-
    14 00000099 C0804100C1814000C1-
    14 000000A2 814001C0804101C080-
    14 000000AB 4100C1814001C08041-
    14 000000B4 00C1814000C1814001-
    14 000000BD C0804100C1814001C0-
    14 000000C6 804101C0804100C181-
    14 000000CF 4001C0804100C18140-
    14 000000D8 00C1814001C0804101-
    14 000000E1 C0804100C1814000C1-
    14 000000EA 814001C0804100C181-
    14 000000F3 4001C0804101C08041-
    14 000000FC 00C18140           
    15 00000100 00C0C101C30302C2C6-     LOW  db 0x00, 0xc0, 0xc1, 0x01, 0xc3, 0x03, 0x02, 0xc2, 0xc6, 0x06, 0x07, 0xc7, 0x05, 0xc5, 0xc4, 0x04, 0xcc, 0x0c, 0x0d, 0xcd, 0x0f, 0xcf, 0xce, 0x0e, 0x0a, 0xca, 0xcb, 0x0b, 0xc9, 0x09, 0x08, 0xc8, 0xd8, 0x18, 0x19, 0xd9, 0x1b, 0xdb, 0xda, 0x1a, 0x1e, 0xde, 0xdf, 0x1f, 0xdd, 0x1d, 0x1c, 0xdc, 0x14, 0xd4, 0xd5, 0x15, 0xd7, 0x17, 0x16, 0xd6, 0xd2, 0x12, 0x13, 0xd3, 0x11, 0xd1, 0xd0, 0x10, 0xf0, 0x30, 0x31, 0xf1, 0x33, 0xf3, 0xf2, 0x32, 0x36, 0xf6, 0xf7, 0x37, 0xf5, 0x35, 0x34, 0xf4, 0x3c, 0xfc, 0xfd, 0x3d, 0xff, 0x3f, 0x3e, 0xfe, 0xfa, 0x3a, 0x3b, 0xfb, 0x39, 0xf9, 0xf8, 0x38, 0x28, 0xe8, 0xe9, 0x29, 0xeb, 0x2b, 0x2a, 0xea, 0xee, 0x2e, 0x2f, 0xef, 0x2d, 0xed, 0xec, 0x2c, 0xe4, 0x24, 0x25, 0xe5, 0x27, 0xe7, 0xe6, 0x26, 0x22, 0xe2, 0xe3, 0x23, 0xe1, 0x21, 0x20, 0xe0, 0xa0, 0x60, 0x61, 0xa1, 0x63, 0xa3, 0xa2, 0x62, 0x66, 0xa6, 0xa7, 0x67, 0xa5, 0x65, 0x64, 0xa4, 0x6c, 0xac, 0xad, 0x6d, 0xaf, 0x6f, 0x6e, 0xae, 0xaa, 0x6a, 0x6b, 0xab, 0x69, 0xa9, 0xa8, 0x68, 0x78, 0xb8, 0xb9, 0x79, 0xbb, 0x7b, 0x7a, 0xba, 0xbe...
    15 00000109 0607C705C5C404CC0C-
    15 00000112 0DCD0FCFCE0E0ACACB-
    15 0000011B 0BC90908C8D81819D9-
    15 00000124 1BDBDA1A1EDEDF1FDD-
    15 0000012D 1D1CDC14D4D515D717-
    15 00000136 16D6D21213D311D1D0-
    15 0000013F 10F03031F133F3F232-
    15 00000148 36F6F737F53534F43C-
    15 00000151 FCFD3DFF3F3EFEFA3A-
    15 0000015A 3BFB39F9F83828E8E9-
    15 00000163 29EB2B2AEAEE2E2FEF-
    15 0000016C 2DEDEC2CE42425E527-
    15 00000175 E7E62622E2E323E121-
    15 0000017E 20E0A06061A163A3A2-
    15 00000187 6266A6A767A56564A4-
    15 00000190 6CACAD6DAF6F6EAEAA-
    15 00000199 6A6BAB69A9A86878B8-
    15 000001A2 B979BB7B7ABABE7E7F-
    15 000001AB BF7DBDBC7CB47475B5-
    15 000001B4 77B7B67672B2B373B1-
    15 000001BD 7170B0509091519353-
    15 000001C6 529296565797559594-
    15 000001CF 549C5C5D9D5F9F9E5E-
    15 000001D8 5A9A9B5B9959589888-
    15 000001E1 4849894B8B8A4A4E8E-
    15 000001EA 8F4F8D4D4C8C448485-
    15 000001F3 458747468682424383-
    15 000001FC 41818040           
    16                                  
    17                                  
    18                                  
    19 00000200 646174612E74787400      fileName db "data.txt",0 ;
    20 00000209 0000000000000000        FD       dq 0 ; descriptor
    21                                  
    22 00000211 000000000000000000-     bufIn    db 0x401 dup 0
    22 0000021A 000000000000000000-
    22 00000223 000000000000000000-
    22 0000022C 000000000000000000-
    22 00000235 000000000000000000-
    22 0000023E 000000000000000000-
    22 00000247 000000000000000000-
    22 00000250 000000000000000000-
    22 00000259 000000000000000000-
    22 00000262 000000000000000000-
    22 0000026B 000000000000000000-
    22 00000274 000000000000000000-
    22 0000027D 000000000000000000-
    22 00000286 000000000000000000-
    22 0000028F 000000000000000000-
    22 00000298 000000000000000000-
    22 000002A1 000000000000000000-
    22 000002AA 000000000000000000-
    22 000002B3 000000000000000000-
    22 000002BC 000000000000000000-
    22 000002C5 000000000000000000-
    22 000002CE 000000000000000000-
    22 000002D7 000000000000000000-
    22 000002E0 000000000000000000-
    22 000002E9 000000000000000000-
    22 000002F2 000000000000000000-
    22 000002FB 000000000000000000-
    22 00000304 000000000000000000-
    22 0000030D 000000000000000000-
    22 00000316 000000000000000000-
    22 0000031F 000000000000000000-
    22 00000328 000000000000000000-
    22 00000331 000000000000000000-
    22 0000033A 000000000000000000-
    22 00000343 000000000000000000-
    22 0000034C 000000000000000000-
    22 00000355 000000000000000000-
    22 0000035E 000000000000000000-
    22 00000367 000000000000000000-
    22 00000370 000000000000000000-
    22 00000379 000000000000000000-
    22 00000382 000000000000000000-
    22 0000038B 000000000000000000-
    22 00000394 000000000000000000-
    22 0000039D 000000000000000000-
    22 000003A6 000000000000000000-
    22 000003AF 000000000000000000-
    22 000003B8 000000000000000000-
    22 000003C1 000000000000000000-
    22 000003CA 000000000000000000-
    22 000003D3 000000000000000000-
    22 000003DC 000000000000000000-
    22 000003E5 000000000000000000-
    22 000003EE 000000000000000000-
    22 000003F7 000000000000000000-
    22 00000400 000000000000000000-
    22 00000409 000000000000000000-
    22 00000412 000000000000000000-
    22 0000041B 000000000000000000-
    22 00000424 000000000000000000-
    22 0000042D 000000000000000000-
    22 00000436 000000000000000000-
    22 0000043F 000000000000000000-
    22 00000448 000000000000000000-
    22 00000451 000000000000000000-
    22 0000045A 000000000000000000-
    22 00000463 000000000000000000-
    22 0000046C 000000000000000000-
    22 00000475 000000000000000000-
    22 0000047E 000000000000000000-
    22 00000487 000000000000000000-
    22 00000490 000000000000000000-
    22 00000499 000000000000000000-
    22 000004A2 000000000000000000-
    22 000004AB 000000000000000000-
    22 000004B4 000000000000000000-
    22 000004BD 000000000000000000-
    22 000004C6 000000000000000000-
    22 000004CF 000000000000000000-
    22 000004D8 000000000000000000-
    22 000004E1 000000000000000000-
    22 000004EA 000000000000000000-
    22 000004F3 000000000000000000-
    22 000004FC 000000000000000000-
    22 00000505 000000000000000000-
    22 0000050E 000000000000000000-
    22 00000517 000000000000000000-
    22 00000520 000000000000000000-
    22 00000529 000000000000000000-
    22 00000532 000000000000000000-
    22 0000053B 000000000000000000-
    22 00000544 000000000000000000-
    22 0000054D 000000000000000000-
    22 00000556 000000000000000000-
    22 0000055F 000000000000000000-
    22 00000568 000000000000000000-
    22 00000571 000000000000000000-
    22 0000057A 000000000000000000-
    22 00000583 000000000000000000-
    22 0000058C 000000000000000000-
    22 00000595 000000000000000000-
    22 0000059E 000000000000000000-
    22 000005A7 000000000000000000-
    22 000005B0 000000000000000000-
    22 000005B9 000000000000000000-
    22 000005C2 000000000000000000-
    22 000005CB 000000000000000000-
    22 000005D4 000000000000000000-
    22 000005DD 000000000000000000-
    22 000005E6 000000000000000000-
    22 000005EF 000000000000000000-
    22 000005F8 000000000000000000-
    22 00000601 000000000000000000-
    22 0000060A 0000000000000000   
    23 00000612 0A0D                    space	 db 10,13
    24 00000614 000000000000000000-     dataBin  db 0x111 dup 0
    24 0000061D 000000000000000000-
    24 00000626 000000000000000000-
    24 0000062F 000000000000000000-
    24 00000638 000000000000000000-
    24 00000641 000000000000000000-
    24 0000064A 000000000000000000-
    24 00000653 000000000000000000-
    24 0000065C 000000000000000000-
    24 00000665 000000000000000000-
    24 0000066E 000000000000000000-
    24 00000677 000000000000000000-
    24 00000680 000000000000000000-
    24 00000689 000000000000000000-
    24 00000692 000000000000000000-
    24 0000069B 000000000000000000-
    24 000006A4 000000000000000000-
    24 000006AD 000000000000000000-
    24 000006B6 000000000000000000-
    24 000006BF 000000000000000000-
    24 000006C8 000000000000000000-
    24 000006D1 000000000000000000-
    24 000006DA 000000000000000000-
    24 000006E3 000000000000000000-
    24 000006EC 000000000000000000-
    24 000006F5 000000000000000000-
    24 000006FE 000000000000000000-
    24 00000707 000000000000000000-
    24 00000710 000000000000000000-
    24 00000719 000000000000000000-
    24 00000722 000000             
    25                                  bufferlen equ 0x400
    26 00000725 000000000000000000-     buf2     db 20 dup 0
    26 0000072E 000000000000000000-
    26 00000737 0000               
    27 00000739 0A0D73746172743A20-     fstart     db   10,13,"start: %d",10,13,0
    27 00000742 25640A0D00         
    28 00000747 73746F70203A202564-     fend       db   "stop : %d",10,13,0
    28 00000750 0A0D00             
    29 00000753 64656C74613A202564-     fdelta     db   "delta: %d",10,13,0
    29 0000075C 0A0D00             
    30                                  
    31                                  
    32                                  
    33 0000075F 0A0D4F4B210A0D00        success_Read db 10,13,"OK!",10,13,0
    34                                  
    35 00000767 0A0D77637A7974756A-     msg db 10,13 , "wczytuje plik: data.txt", 10,13,0
    35 00000770 6520706C696B3A2064-
    35 00000779 6174612E7478740A0D-
    35 00000782 00                 
    36                                  
    37                                  
    38                                  
    39                                  section .text
    40                                  global main
    41                                  main:
    42                                  
    43                                  	; args
    44                                  	;mov ecx, [esp+4] ; argc
    45                                  	;mov edx, [esp+8] ; argv
    46                                  
    47 00000000 4A8B740608              	mov rsi, qword [rsi+r8+8] ; argv
    48                                  	
    49 00000005 B800000000              	mov rax, 0
    50 0000000A E8DB020000              	call parseParam ; rsi to rax
    51 0000000F 4989C7                  	mov r15,rax
    52                                  	
    53 00000012 48BE-                   	mov rsi, buf2
    53 00000014 [2507000000000000] 
    54 0000001C 488906                  	mov [rsi], rax
    55                                  	
    56 0000001F E8E8000000              	call printString
    57                                  
    58                                  
    59                                  
    60                                  
    61                                  
    62                                  
    63                                  
    64                                  
    65 00000024 48BE-                   	mov rsi, msg
    65 00000026 [6707000000000000] 
    66 0000002E E8D9000000              	call printString
    67                                  	
    68                                  	; open file
    69 00000033 48BF-                   	mov rdi,fileName
    69 00000035 [0002000000000000] 
    70 0000003D E803010000              	call openFile
    71                                  	
    72                                  	; save descriptor
    73 00000042 48890425[09020000]      	mov qword [FD], rax
    74                                  	
    75                                  	; read file
    76 0000004A 488B3C25[09020000]      	mov rdi, qword [FD]
    77 00000052 48BE-                   	mov rsi, bufIn
    77 00000054 [1102000000000000] 
    78 0000005C BA00040000              	mov rdx, bufferlen
    79 00000061 E8D7000000              	call readFile
    80                                  
    81                                  	; close file
    82 00000066 488B3C25[09020000]      	mov rdi, qword [FD]	
    83 0000006E E8DF000000              	call closeFile
    84                                  	
    85                                  	; parse to binary
    86 00000073 E8E2000000              	call parseFile
    87                                  
    88                                  	; print dataIn
    89 00000078 48BE-                   	mov rsi, bufIn
    89 0000007A [1102000000000000] 
    90 00000082 E885000000              	call printString
    91                                  
    92                                  	; print
    93 00000087 48BE-                   	mov rsi, space
    93 00000089 [1206000000000000] 
    94 00000091 E876000000              	call printString
    95                                  
    96                                  	; start time
    97                                  	;call checkTime
    98 00000096 41BD5A256A66            	mov r13 ,__POSIX_TIME__
    99 0000009C B800000000              	mov rax,0
   100 000000A1 48BF-                   	mov rdi, fstart
   100 000000A3 [3907000000000000] 
   101 000000AB 4C89EE                  	mov rsi,r13
   102 000000AE E8(00000000)            	call printf
   103                                  
   104                                  
   105                                  	myLoop:
   106 000000B3 4983FF00                	cmp r15,0
   107 000000B7 49FFCF                  	dec r15
   108                                  	 
   109 000000BA E854020000              	call CRC  
   110                                  	 
   111 000000BF 75F2                    	jne myLoop
   112                                  
   113                                  	; end time
   114                                  	;call checkTime
   115 000000C1 41BE5A256A66            	mov r14 ,__POSIX_TIME__
   116 000000C7 B800000000              	mov rax,0
   117 000000CC 48BF-                   	mov rdi, fend
   117 000000CE [4707000000000000] 
   118 000000D6 4C89EE                  	mov rsi,r13
   119 000000D9 E8(00000000)            	call printf
   120                                  	
   121 000000DE 4D29EE                  	sub r14,r13
   122 000000E1 B800000000              	mov rax,0
   123 000000E6 48BF-                   	mov rdi, fdelta
   123 000000E8 [5307000000000000] 
   124 000000F0 4C89F6                  	mov rsi,r14
   125 000000F3 E8(00000000)            	call printf
   126                                  	
   127                                  	
   128 000000F8 E833000000              	call exit
   129 000000FD C3                      ret
   130                                  
   131                                  
   132                                  
   133                                  
   134                                  
   135                                  
   136                                  
   137                                  
   138                                  
   139                                  
   140                                  ; close file
   141 000000FE 488B3C25[09020000]      mov rdi, qword[FD]
   142 00000106 E847000000              call closeFile
   143                                  
   144 0000010B C3                      ret
   145                                  
   146                                  ;
   147                                  
   148                                  
   149                                  
   150                                  
   151                                  
   152                                  
   153                                  
   154                                  
   155                                  
   156                                  
   157                                  
   158                                  
   159                                  
   160                                  
   161                                  
   162                                  
   163                                  
   164                                  global printString ; rsi <= stringAddress
   165                                  printString:
   166                                      ; rsi msg addres
   167 0000010C 4989F4                  	mov r12,rsi
   168 0000010F BA00000000              	mov rdx,0
   169                                  
   170                                  	strLoop:
   171 00000114 41803C2400              	   cmp byte[r12],0
   172 00000119 7408                    	   je loopEnd;
   173 0000011B 48FFC2                  	   inc rdx
   174 0000011E 49FFC4                  	   inc r12
   175 00000121 EBF1                    	   jmp strLoop	
   176                                  	   
   177                                  	loopEnd:
   178 00000123 B801000000              	mov rax,1 ; print
   179 00000128 BF01000000              	mov rdi,1 ; to std_out
   180 0000012D 0F05                    	syscall
   181                                  
   182 0000012F C3                      ret
   183                                  
   184                                  
   185                                  
   186                                  
   187                                  
   188                                  global exit
   189                                  exit:
   190 00000130 B83C000000              	mov rax,60
   191 00000135 BF00000000              	mov rdi,0
   192 0000013A 0F05                    	syscall
   193                                  
   194 0000013C C3                      ret
   195                                  	
   196                                  	
   197                                  ; ---- funkcje manipulujace plikiem
   198                                  ; ---------------------------------
   199                                  
   200                                  
   201                                  global readFile
   202                                  readFile:
   203                                      
   204 0000013D B800000000              	mov rax, NR_read
   205 00000142 0F05                    	syscall
   206                                  	
   207                                  	;mov byte[rsi+rax],0 ; dodajemy 0 na koncu lancucha
   208                                  	;mov rax,rsi
   209                                  	;push rsi
   210                                  	;push rax
   211                                  	;	mov  rsi,success_Read
   212                                  	;	call printString
   213                                  	;pop rax
   214                                  	;pop rsi
   215 00000144 C3                      ret
   216                                  
   217                                  ; ---
   218                                  
   219                                  
   220                                  global openFile
   221                                  openFile:
   222                                  
   223 00000145 B802000000              	mov rax, NR_open
   224 0000014A BE00000000              	mov rsi, O_RDONLY
   225 0000014F 0F05                    	syscall
   226 00000151 C3                      ret
   227                                  
   228                                  
   229                                  global closeFile
   230                                  closeFile:
   231 00000152 B803000000              mov rax,NR_close
   232 00000157 0F05                    syscall
   233 00000159 C3                      ret
   234                                  
   235                                  
   236                                  global parseFile ; 	mov rsi, bufIn
   237                                  parseFile:
   238                                  	
   239 0000015A 48BE-                   	mov rsi, bufIn 
   239 0000015C [1102000000000000] 
   240 00000164 48BF-                   	mov rdi, dataBin
   240 00000166 [1406000000000000] 
   241                                  	
   242                                  	parseChar:
   243 0000016E 66B80000                		mov ax,0
   244 00000172 803E00                  		cmp byte [rsi],0
   245 00000175 741A                    		je parseEnd
   246                                  		
   247 00000177 E816000000              		call charToInt
   248 0000017C 48FFC6                  		inc rsi
   249                                  		
   250 0000017F E80E000000              		call charToInt
   251 00000184 48FFC6                  		inc rsi
   252 00000187 8807                    		mov byte[rdi],al
   253 00000189 48FFC7                  		inc rdi
   254 0000018C 48FFC6                  		inc rsi
   255 0000018F EBDD                    		jmp parseChar
   256                                  	
   257                                  	parseEnd:
   258                                  	
   259                                  	
   260                                  
   261                                  
   262                                  parseFileLoop:
   263                                  
   264                                  
   265 00000191 C3                      ret 
   266                                  
   267                                  
   268                                  
   269                                  global charToInt ; char [rsi]
   270                                  charToInt:
   271 00000192 803E30                  	cmp byte[rsi],0x30
   272 00000195 0F84BE000000            	je loop0
   273                                  	
   274 0000019B 803E31                  	cmp byte[rsi],0x31
   275 0000019E 0F84BE000000            	je loop1
   276                                  
   277 000001A4 803E32                  	cmp byte[rsi],0x32
   278 000001A7 0F84BE000000            	je loop2
   279                                  
   280 000001AD 803E33                  	cmp byte[rsi],0x33
   281 000001B0 0F84BE000000            	je loop3
   282                                  
   283 000001B6 803E34                  	cmp byte[rsi],0x34
   284 000001B9 0F84BE000000            	je loop4
   285                                  	
   286 000001BF 803E35                  	cmp byte[rsi],0x35
   287 000001C2 0F84BE000000            	je loop5
   288                                  
   289 000001C8 803E36                  	cmp byte[rsi],0x36
   290 000001CB 0F84BE000000            	je loop6
   291                                  
   292 000001D1 803E37                  	cmp byte[rsi],0x37
   293 000001D4 0F84BE000000            	je loop7
   294                                  	
   295 000001DA 803E38                  	cmp byte[rsi],0x38
   296 000001DD 0F84BE000000            	je loop8
   297                                  	
   298 000001E3 803E39                  	cmp byte[rsi],0x39
   299 000001E6 0F84BE000000            	je loop9
   300                                  
   301 000001EC 803E41                  	cmp byte[rsi],0x41
   302 000001EF 0F84BE000000            	je loopa
   303                                  
   304 000001F5 803E61                  	cmp byte[rsi],0x61
   305 000001F8 0F84B5000000            	je loopa
   306                                  	
   307 000001FE 803E42                  	cmp byte[rsi],0x42
   308 00000201 0F84B5000000            	je loopb
   309                                  	
   310 00000207 803E62                  	cmp byte[rsi],0x62
   311 0000020A 0F84AC000000            	je loopb
   312                                  
   313 00000210 803E43                  	cmp byte[rsi],0x43
   314 00000213 0F84AC000000            	je loopc
   315                                  
   316 00000219 803E63                  	cmp byte[rsi],0x63
   317 0000021C 0F84A3000000            	je loopc
   318                                  	
   319 00000222 803E44                  	cmp byte[rsi],0x44
   320 00000225 0F84A3000000            	je loop_d
   321                                  	
   322 0000022B 803E64                  	cmp byte[rsi],0x64
   323 0000022E 0F849A000000            	je loop_d
   324                                  
   325 00000234 803E45                  	cmp byte[rsi],0x45
   326 00000237 0F849A000000            	je loop_e
   327                                  
   328 0000023D 803E65                  	cmp byte[rsi],0x65
   329 00000240 0F8491000000            	je loop_e
   330                                  	
   331 00000246 803E46                  	cmp byte[rsi],0x46
   332 00000249 0F8491000000            	je loopf
   333                                  	
   334 0000024F 803E66                  	cmp byte[rsi],0x66
   335 00000252 0F8488000000            	je loopf
   336                                  
   337 00000258 C3                      	ret
   338                                  	
   339                                  	loop0:
   340 00000259 66C1E004                	shl ax,4
   341 0000025D 6683C000                	add ax,0
   342 00000261 C3                      	ret
   343                                  
   344                                  	loop1:
   345 00000262 66C1E004                	shl ax,4	
   346 00000266 6683C001                	add ax,1
   347 0000026A C3                      	ret
   348                                  	
   349                                  	loop2:
   350 0000026B 66C1E004                	shl ax,4	
   351 0000026F 6683C002                	add ax,2
   352 00000273 C3                      	ret
   353                                  	
   354                                  	loop3:
   355 00000274 66C1E004                	shl ax,4	
   356 00000278 6683C003                	add ax,3
   357 0000027C C3                      	ret
   358                                  
   359                                  	loop4:
   360 0000027D 66C1E004                	shl ax,4	
   361 00000281 6683C004                	add ax,4
   362 00000285 C3                      	ret
   363                                  	
   364                                  	loop5:
   365 00000286 66C1E004                	shl ax,4	
   366 0000028A 6683C005                	add ax,5
   367 0000028E C3                      	ret
   368                                  	
   369                                  	loop6:
   370 0000028F 66C1E004                	shl ax,4	
   371 00000293 6683C006                	add ax,6
   372 00000297 C3                      	ret
   373                                  	
   374                                  	loop7:
   375 00000298 66C1E004                	shl ax,4	
   376 0000029C 6683C007                	add ax,7
   377 000002A0 C3                      	ret
   378                                  	
   379                                  	loop8:
   380 000002A1 66C1E004                	shl ax,4	
   381 000002A5 6683C008                	add ax,8
   382 000002A9 C3                      	ret
   383                                  	
   384                                  	loop9:
   385 000002AA 66C1E004                	shl ax,4	
   386 000002AE 6683C009                	add ax,9
   387 000002B2 C3                      	ret
   388                                  	
   389                                  	loopa:
   390 000002B3 66C1E004                	shl ax,4	
   391 000002B7 6683C00A                	add ax,0x0a
   392 000002BB C3                      	ret
   393                                  	
   394                                  	loopb:
   395 000002BC 66C1E004                	shl ax,4	
   396 000002C0 6683C00B                	add ax,0x0b
   397 000002C4 C3                      	ret
   398                                  	
   399                                  	loopc:
   400 000002C5 66C1E004                	shl ax,4	
   401 000002C9 6683C00C                	add ax,0x0c
   402 000002CD C3                      	ret
   403                                  	
   404                                  	loop_d:
   405 000002CE 66C1E004                	shl ax,4	
   406 000002D2 6683C00D                	add ax,0x0d
   407 000002D6 C3                      	ret
   408                                  	
   409                                  	loop_e:
   410 000002D7 66C1E004                	shl ax,4	
   411 000002DB 6683C00E                	add ax,0x0e
   412 000002DF C3                      	ret
   413                                  	
   414                                  	loopf:
   415 000002E0 66C1E004                	shl ax,4	
   416 000002E4 6683C00F                	add ax,0x0f
   417 000002E8 C3                      	ret
   418                                  
   419 000002E9 C3                      ret
   420                                  
   421                                  
   422                                  global parseParam ; rsi
   423                                  parseParam:
   424                                  
   425 000002EA B800000000              	mov rax, 0
   426 000002EF 66B90A00                	mov cx,0x0a
   427                                  	
   428                                  	parseParamLoop:
   429 000002F3 803E00                  		cmp byte[rsi],0
   430 000002F6 741A                    		je 	parseParamEnd
   431 000002F8 803E14                  		cmp byte[rsi],20
   432 000002FB 7415                    		je 	parseParamEnd
   433                                  	
   434 000002FD BB00000000              	mov rbx,0
   435 00000302 8A1E                    	mov bl, byte[rsi]
   436 00000304 80EB30                  	sub bl, 0x030
   437 00000307 66F7E1                  	mul cx
   438 0000030A 4801D8                  	add rax,rbx
   439 0000030D 48FFC6                  	inc rsi
   440 00000310 EBE1                    	jmp parseParamLoop
   441                                  	
   442                                  	parseParamEnd:
   443                                  
   444                                  
   445 00000312 C3                      ret
   446                                  
   447                                  
   448                                  global CRC
   449                                  CRC:
   450                                  
   451                                  
   452                                  
   453 00000313 C3                      ret
   454                                  
   455                                  
   456                                  global checkTime
   457                                  checkTime:
   458                                  	
   459 00000314 C3                      ret
